; Function Attrs: mustprogress uwtable
define void @_ZN2cv3ccm20ColorCorrectionModel4Impl8getColorENS0_11CONST_COLORE(ptr noundef nonnull align 8 captures(none) dereferenceable(1008) initializes((96, 104)) %0, i32 noundef %1) local_unnamed_addr #0 align 2 personality ptr @__gxx_personality_v0 {
  %3 = alloca %"class.std::shared_ptr", align 8
  call void @llvm.lifetime.start.p0(i64 16, ptr nonnull %3) #21
  call void @_ZN2cv3ccm8GetColor8getColorENS0_11CONST_COLORE(ptr dead_on_unwind nonnull writable sret(%"class.std::shared_ptr") align 8 %3, i32 noundef %1)
  %4 = getelementptr inbounds nuw i8, ptr %0, i64 96
  %5 = load ptr, ptr %3, align 8, !tbaa !6
  %6 = getelementptr inbounds nuw i8, ptr %3, i64 8
  %7 = load ptr, ptr %6, align 8, !tbaa !20
  call void @llvm.memset.p0.i64(ptr noundef nonnull align 8 dereferenceable(16) %3, i8 0, i64 16, i1 false)
  store ptr %5, ptr %4, align 8, !tbaa !21
  %8 = getelementptr inbounds nuw i8, ptr %0, i64 104
  %9 = load ptr, ptr %8, align 8, !tbaa !20
  store ptr %7, ptr %8, align 8, !tbaa !20
  %.not.i.i.i.i = icmp eq ptr %9, null
  br i1 %.not.i.i.i.i, label %_ZNSt10shared_ptrIN2cv3ccm5ColorEEaSEOS3_.exit, label %10

10:                                               ; preds = %2
  %11 = getelementptr inbounds nuw i8, ptr %9, i64 8
  %12 = load atomic i64, ptr %11 acquire, align 8
  %13 = icmp eq i64 %12, 4294967297
  %14 = trunc i64 %12 to i32
  br i1 %13, label %15, label %23

15:                                               ; preds = %10
  store i32 0, ptr %11, align 8, !tbaa !14
  %16 = getelementptr inbounds nuw i8, ptr %9, i64 12
  store i32 0, ptr %16, align 4, !tbaa !17
  %17 = load ptr, ptr %9, align 8, !tbaa !18
  %18 = getelementptr inbounds nuw i8, ptr %17, i64 16
  %19 = load ptr, ptr %18, align 8
  call void %19(ptr noundef nonnull align 8 dereferenceable(16) %9) #21
  %20 = load ptr, ptr %9, align 8, !tbaa !18
  %21 = getelementptr inbounds nuw i8, ptr %20, i64 24
  %22 = load ptr, ptr %21, align 8
  call void %22(ptr noundef nonnull align 8 dereferenceable(16) %9) #21
  br label %_ZNSt10shared_ptrIN2cv3ccm5ColorEEaSEOS3_.exit

23:                                               ; preds = %10
  %24 = load i8, ptr @__libc_single_threaded, align 1, !tbaa !25
  %.not.i.i.i.i.i = icmp eq i8 %24, 0
  br i1 %.not.i.i.i.i.i, label %27, label %25

25:                                               ; preds = %23
  %26 = add nsw i32 %14, -1
  store i32 %26, ptr %11, align 4, !tbaa !26
  br label %_ZN9__gnu_cxx27__exchange_and_add_dispatchEPii.exit.i.i.i.i.i

27:                                               ; preds = %23
  %28 = atomicrmw volatile add ptr %11, i32 -1 acq_rel, align 4
  br label %_ZN9__gnu_cxx27__exchange_and_add_dispatchEPii.exit.i.i.i.i.i

_ZN9__gnu_cxx27__exchange_and_add_dispatchEPii.exit.i.i.i.i.i: ; preds = %27, %25
  %.0.i.i.i.i.i.i = phi i32 [ %14, %25 ], [ %28, %27 ]
  %29 = icmp eq i32 %.0.i.i.i.i.i.i, 1
  br i1 %29, label %30, label %_ZNSt10shared_ptrIN2cv3ccm5ColorEEaSEOS3_.exit, !prof !27

30:                                               ; preds = %_ZN9__gnu_cxx27__exchange_and_add_dispatchEPii.exit.i.i.i.i.i
  call void @_ZNSt16_Sp_counted_baseILN9__gnu_cxx12_Lock_policyE2EE24_M_release_last_use_coldEv(ptr noundef nonnull align 8 dereferenceable(16) %9) #21
  br label %_ZNSt10shared_ptrIN2cv3ccm5ColorEEaSEOS3_.exit

_ZNSt10shared_ptrIN2cv3ccm5ColorEEaSEOS3_.exit:   ; preds = %2, %15, %_ZN9__gnu_cxx27__exchange_and_add_dispatchEPii.exit.i.i.i.i.i, %30
  %31 = load ptr, ptr %6, align 8, !tbaa !20
  %.not.i.i = icmp eq ptr %31, null
  br i1 %.not.i.i, label %_ZNSt12__shared_ptrIN2cv3ccm5ColorELN9__gnu_cxx12_Lock_policyE2EED2Ev.exit, label %32

32:                                               ; preds = %_ZNSt10shared_ptrIN2cv3ccm5ColorEEaSEOS3_.exit
  %33 = getelementptr inbounds nuw i8, ptr %31, i64 8
  %34 = load atomic i64, ptr %33 acquire, align 8
  %35 = icmp eq i64 %34, 4294967297
  %36 = trunc i64 %34 to i32
  br i1 %35, label %37, label %45

37:                                               ; preds = %32
  store i32 0, ptr %33, align 8, !tbaa !14
  %38 = getelementptr inbounds nuw i8, ptr %31, i64 12
  store i32 0, ptr %38, align 4, !tbaa !17
  %39 = load ptr, ptr %31, align 8, !tbaa !18
  %40 = getelementptr inbounds nuw i8, ptr %39, i64 16
  %41 = load ptr, ptr %40, align 8
  call void %41(ptr noundef nonnull align 8 dereferenceable(16) %31) #21
  %42 = load ptr, ptr %31, align 8, !tbaa !18
  %43 = getelementptr inbounds nuw i8, ptr %42, i64 24
  %44 = load ptr, ptr %43, align 8
  call void %44(ptr noundef nonnull align 8 dereferenceable(16) %31) #21
  br label %_ZNSt12__shared_ptrIN2cv3ccm5ColorELN9__gnu_cxx12_Lock_policyE2EED2Ev.exit

45:                                               ; preds = %32
  %46 = load i8, ptr @__libc_single_threaded, align 1, !tbaa !25
  %.not.i.i.i = icmp eq i8 %46, 0
  br i1 %.not.i.i.i, label %49, label %47

47:                                               ; preds = %45
  %48 = add nsw i32 %36, -1
  store i32 %48, ptr %33, align 4, !tbaa !26
  br label %_ZN9__gnu_cxx27__exchange_and_add_dispatchEPii.exit.i.i.i

49:                                               ; preds = %45
  %50 = atomicrmw volatile add ptr %33, i32 -1 acq_rel, align 4
  br label %_ZN9__gnu_cxx27__exchange_and_add_dispatchEPii.exit.i.i.i

_ZN9__gnu_cxx27__exchange_and_add_dispatchEPii.exit.i.i.i: ; preds = %49, %47
  %.0.i.i.i.i = phi i32 [ %36, %47 ], [ %50, %49 ]
  %51 = icmp eq i32 %.0.i.i.i.i, 1
  br i1 %51, label %52, label %_ZNSt12__shared_ptrIN2cv3ccm5ColorELN9__gnu_cxx12_Lock_policyE2EED2Ev.exit, !prof !27

52:                                               ; preds = %_ZN9__gnu_cxx27__exchange_and_add_dispatchEPii.exit.i.i.i
  call void @_ZNSt16_Sp_counted_baseILN9__gnu_cxx12_Lock_policyE2EE24_M_release_last_use_coldEv(ptr noundef nonnull align 8 dereferenceable(16) %31) #21
  br label %_ZNSt12__shared_ptrIN2cv3ccm5ColorELN9__gnu_cxx12_Lock_policyE2EED2Ev.exit

_ZNSt12__shared_ptrIN2cv3ccm5ColorELN9__gnu_cxx12_Lock_policyE2EED2Ev.exit: ; preds = %_ZNSt10shared_ptrIN2cv3ccm5ColorEEaSEOS3_.exit, %37, %_ZN9__gnu_cxx27__exchange_and_add_dispatchEPii.exit.i.i.i, %52
  call void @llvm.lifetime.end.p0(i64 16, ptr nonnull %3) #21
  ret void
}